target datalayout = "e-m:e-p270:32:32-p271:32:32-p272:64:64-i64:64-i128:128-f80:128-n8:16:32:64-S128"
target triple = "x86_64-unknown-linux-gnu"

%"class.Assimp::FBX::Token" = type <{ ptr, ptr, i32, [4 x i8], %union.anon, i32, [4 x i8] }>
%union.anon = type { i64 }

@.str.9 = private unnamed_addr constant [24 x i8] c"expected TOK_DATA token\00", align 1
@.str.14 = private unnamed_addr constant [19 x i8] c"failed to parse ID\00", align 1
@.str.16 = private unnamed_addr constant [53 x i8] c"failed to parse I(nt), unexpected data type (binary)\00", align 1
@.str.44 = private unnamed_addr constant [24 x i8] c"Converting the string \22\00", align 1
@.str.45 = private unnamed_addr constant [47 x i8] c"\22 into an inverted value resulted in overflow.\00", align 1

; Function Attrs: mustprogress nounwind uwtable
define linkonce_odr hidden noundef i32 @_ZN6Assimp9strtoul10EPKcPS1_(ptr noundef %in, ptr noundef %out) #0 comdat {
entry:
  %in.addr = alloca ptr, align 8
  %out.addr = alloca ptr, align 8
  %value = alloca i32, align 4
  store ptr %in, ptr %in.addr, align 8
  store ptr %out, ptr %out.addr, align 8
  store i32 0, ptr %value, align 4
  br label %for.cond

for.cond:                                         ; preds = %if.end, %entry
  %0 = load ptr, ptr %in.addr, align 8
  %1 = load i8, ptr %0, align 1
  %conv = sext i8 %1 to i32
  %cmp = icmp slt i32 %conv, 48
  br i1 %cmp, label %if.then, label %lor.lhs.false

lor.lhs.false:                                    ; preds = %for.cond
  %2 = load ptr, ptr %in.addr, align 8
  %3 = load i8, ptr %2, align 1
  %conv1 = sext i8 %3 to i32
  %cmp2 = icmp sgt i32 %conv1, 57
  br i1 %cmp2, label %if.then, label %if.end

if.then:                                          ; preds = %lor.lhs.false, %for.cond
  br label %for.end

if.end:                                           ; preds = %lor.lhs.false
  %4 = load i32, ptr %value, align 4
  %mul = mul i32 %4, 10
  %5 = load ptr, ptr %in.addr, align 8
  %6 = load i8, ptr %5, align 1
  %conv3 = sext i8 %6 to i32
  %sub = sub nsw i32 %conv3, 48
  %add = add i32 %mul, %sub
  store i32 %add, ptr %value, align 4
  %7 = load ptr, ptr %in.addr, align 8
  %incdec.ptr = getelementptr inbounds i8, ptr %7, i32 1
  store ptr %incdec.ptr, ptr %in.addr, align 8
  br label %for.cond, !llvm.loop !30

for.end:                                          ; preds = %if.then
  %8 = load ptr, ptr %out.addr, align 8
  %tobool = icmp ne ptr %8, null
  br i1 %tobool, label %if.then4, label %if.end5

if.then4:                                         ; preds = %for.end
  %9 = load ptr, ptr %in.addr, align 8
  %10 = load ptr, ptr %out.addr, align 8
  store ptr %9, ptr %10, align 8
  br label %if.end5

if.end5:                                          ; preds = %if.then4, %for.end
  %11 = load i32, ptr %value, align 4
  ret i32 %11
}

; Function Attrs: mustprogress uwtable
define linkonce_odr hidden noundef i32 @_ZN6Assimp8strtol10EPKcPS1_(ptr noundef %in, ptr noundef %out) #6 comdat {
entry:
  %in.addr = alloca ptr, align 8
  %out.addr = alloca ptr, align 8
  %inv = alloca i8, align 1
  %value = alloca i32, align 4
  store ptr %in, ptr %in.addr, align 8
  store ptr %out, ptr %out.addr, align 8
  %0 = load ptr, ptr %in.addr, align 8
  %1 = load i8, ptr %0, align 1
  %conv = sext i8 %1 to i32
  %cmp = icmp eq i32 %conv, 45
  %frombool = zext i1 %cmp to i8
  store i8 %frombool, ptr %inv, align 1
  %2 = load i8, ptr %inv, align 1
  %tobool = trunc i8 %2 to i1
  br i1 %tobool, label %if.then, label %lor.lhs.false

lor.lhs.false:                                    ; preds = %entry
  %3 = load ptr, ptr %in.addr, align 8
  %4 = load i8, ptr %3, align 1
  %conv1 = sext i8 %4 to i32
  %cmp2 = icmp eq i32 %conv1, 43
  br i1 %cmp2, label %if.then, label %if.end

if.then:                                          ; preds = %lor.lhs.false, %entry
  %5 = load ptr, ptr %in.addr, align 8
  %incdec.ptr = getelementptr inbounds i8, ptr %5, i32 1
  store ptr %incdec.ptr, ptr %in.addr, align 8
  br label %if.end

if.end:                                           ; preds = %if.then, %lor.lhs.false
  %6 = load ptr, ptr %in.addr, align 8
  %7 = load ptr, ptr %out.addr, align 8
  %call = call noundef i32 @_ZN6Assimp9strtoul10EPKcPS1_(ptr noundef %6, ptr noundef %7)
  store i32 %call, ptr %value, align 4
  %8 = load i8, ptr %inv, align 1
  %tobool3 = trunc i8 %8 to i1
  br i1 %tobool3, label %if.then4, label %if.end9

if.then4:                                         ; preds = %if.end
  %9 = load i32, ptr %value, align 4
  %cmp5 = icmp slt i32 %9, 2147483647
  br i1 %cmp5, label %if.then6, label %if.else

if.then6:                                         ; preds = %if.then4
  %10 = load i32, ptr %value, align 4
  %sub = sub nsw i32 0, %10
  store i32 %sub, ptr %value, align 4
  br label %if.end8

if.else:                                          ; preds = %if.then4
  %call7 = call noundef ptr @_ZN6Assimp13DefaultLogger3getEv()
  call void @_ZN6Assimp6Logger4warnIJRA24_KcRPS2_RA47_S2_EEEvDpOT_(ptr noundef nonnull align 8 dereferenceable(12) %call7, ptr noundef nonnull align 1 dereferenceable(24) @.str.44, ptr noundef nonnull align 8 dereferenceable(8) %in.addr, ptr noundef nonnull align 1 dereferenceable(47) @.str.45)
  br label %if.end8

if.end8:                                          ; preds = %if.else, %if.then6
  br label %if.end9

if.end9:                                          ; preds = %if.end8, %if.end
  %11 = load i32, ptr %value, align 4
  ret i32 %11
}

; Function Attrs: mustprogress nounwind uwtable
define internal noundef i32 @_ZN12_GLOBAL__N_19SafeParseIiEET_PKcS3_(ptr noundef %data, ptr noundef %end) #0 {
entry:
  %data.addr = alloca ptr, align 8
  %end.addr = alloca ptr, align 8
  %result = alloca i32, align 4
  store ptr %data, ptr %data.addr, align 8
  store ptr %end, ptr %end.addr, align 8
  store i32 0, ptr %result, align 4
  %0 = load ptr, ptr %data.addr, align 8
  call void @llvm.memcpy.p0.p0.i64(ptr align 4 %result, ptr align 1 %0, i64 4, i1 false)
  %1 = load i32, ptr %result, align 4
  ret i32 %1
}

; Function Attrs: mustprogress nounwind uwtable
define linkonce_odr hidden noundef ptr @_ZNK6Assimp3FBX5Token3endEv(ptr noundef nonnull align 8 dereferenceable(36) %this) #0 comdat align 2 {
entry:
  %this.addr = alloca ptr, align 8
  store ptr %this, ptr %this.addr, align 8
  %this1 = load ptr, ptr %this.addr, align 8
  %send = getelementptr inbounds %"class.Assimp::FBX::Token", ptr %this1, i32 0, i32 1
  %0 = load ptr, ptr %send, align 8
  ret ptr %0
}

; Function Attrs: mustprogress nounwind uwtable
define linkonce_odr hidden noundef ptr @_ZNK6Assimp3FBX5Token5beginEv(ptr noundef nonnull align 8 dereferenceable(36) %this) #0 comdat align 2 {
entry:
  %this.addr = alloca ptr, align 8
  store ptr %this, ptr %this.addr, align 8
  %this1 = load ptr, ptr %this.addr, align 8
  %sbegin = getelementptr inbounds %"class.Assimp::FBX::Token", ptr %this1, i32 0, i32 0
  %0 = load ptr, ptr %sbegin, align 8
  ret ptr %0
}

; Function Attrs: mustprogress nounwind uwtable
define linkonce_odr hidden noundef zeroext i1 @_ZNK6Assimp3FBX5Token8IsBinaryEv(ptr noundef nonnull align 8 dereferenceable(36) %this) #0 comdat align 2 {
entry:
  %this.addr = alloca ptr, align 8
  store ptr %this, ptr %this.addr, align 8
  %this1 = load ptr, ptr %this.addr, align 8
  %column = getelementptr inbounds %"class.Assimp::FBX::Token", ptr %this1, i32 0, i32 5
  %0 = load i32, ptr %column, align 8
  %cmp = icmp eq i32 %0, -1
  ret i1 %cmp
}

; Function Attrs: mustprogress nounwind uwtable
define linkonce_odr hidden noundef i32 @_ZNK6Assimp3FBX5Token4TypeEv(ptr noundef nonnull align 8 dereferenceable(36) %this) #0 comdat align 2 {
entry:
  %this.addr = alloca ptr, align 8
  store ptr %this, ptr %this.addr, align 8
  %this1 = load ptr, ptr %this.addr, align 8
  %type = getelementptr inbounds %"class.Assimp::FBX::Token", ptr %this1, i32 0, i32 2
  %0 = load i32, ptr %type, align 8
  ret i32 %0
}

; Function Attrs: mustprogress uwtable
define hidden noundef i32 @_ZN6Assimp3FBX15ParseTokenAsIntERKNS0_5TokenERPKc(ptr noundef nonnull align 8 dereferenceable(36) %t, ptr noundef nonnull align 8 dereferenceable(8) %err_out) #6 {
entry:
  %retval = alloca i32, align 4
  %t.addr = alloca ptr, align 8
  %err_out.addr = alloca ptr, align 8
  %data = alloca ptr, align 8
  %ival = alloca i32, align 4
  %out = alloca ptr, align 8
  %intval = alloca i32, align 4
  store ptr %t, ptr %t.addr, align 8
  store ptr %err_out, ptr %err_out.addr, align 8
  %0 = load ptr, ptr %err_out.addr, align 8
  store ptr null, ptr %0, align 8
  %1 = load ptr, ptr %t.addr, align 8
  %call = call noundef i32 @_ZNK6Assimp3FBX5Token4TypeEv(ptr noundef nonnull align 8 dereferenceable(36) %1)
  %cmp = icmp ne i32 %call, 2
  br i1 %cmp, label %if.then, label %if.end

if.then:                                          ; preds = %entry
  %2 = load ptr, ptr %err_out.addr, align 8
  store ptr @.str.9, ptr %2, align 8
  store i32 0, ptr %retval, align 4
  br label %return

if.end:                                           ; preds = %entry
  %3 = load ptr, ptr %t.addr, align 8
  %call1 = call noundef zeroext i1 @_ZNK6Assimp3FBX5Token8IsBinaryEv(ptr noundef nonnull align 8 dereferenceable(36) %3)
  br i1 %call1, label %if.then2, label %if.end9

if.then2:                                         ; preds = %if.end
  %4 = load ptr, ptr %t.addr, align 8
  %call3 = call noundef ptr @_ZNK6Assimp3FBX5Token5beginEv(ptr noundef nonnull align 8 dereferenceable(36) %4)
  store ptr %call3, ptr %data, align 8
  %5 = load ptr, ptr %data, align 8
  %arrayidx = getelementptr inbounds i8, ptr %5, i64 0
  %6 = load i8, ptr %arrayidx, align 1
  %conv = sext i8 %6 to i32
  %cmp4 = icmp ne i32 %conv, 73
  br i1 %cmp4, label %if.then5, label %if.end6

if.then5:                                         ; preds = %if.then2
  %7 = load ptr, ptr %err_out.addr, align 8
  store ptr @.str.16, ptr %7, align 8
  store i32 0, ptr %retval, align 4
  br label %return

if.end6:                                          ; preds = %if.then2
  %8 = load ptr, ptr %data, align 8
  %add.ptr = getelementptr inbounds i8, ptr %8, i64 1
  %9 = load ptr, ptr %t.addr, align 8
  %call7 = call noundef ptr @_ZNK6Assimp3FBX5Token3endEv(ptr noundef nonnull align 8 dereferenceable(36) %9)
  %call8 = call noundef i32 @_ZN12_GLOBAL__N_19SafeParseIiEET_PKcS3_(ptr noundef %add.ptr, ptr noundef %call7)
  store i32 %call8, ptr %ival, align 4
  %10 = load i32, ptr %ival, align 4
  store i32 %10, ptr %retval, align 4
  br label %return

if.end9:                                          ; preds = %if.end
  %11 = load ptr, ptr %t.addr, align 8
  %call10 = call noundef ptr @_ZNK6Assimp3FBX5Token5beginEv(ptr noundef nonnull align 8 dereferenceable(36) %11)
  %call11 = call noundef i32 @_ZN6Assimp8strtol10EPKcPS1_(ptr noundef %call10, ptr noundef %out)
  store i32 %call11, ptr %intval, align 4
  %12 = load ptr, ptr %out, align 8
  %13 = load ptr, ptr %t.addr, align 8
  %call12 = call noundef ptr @_ZNK6Assimp3FBX5Token3endEv(ptr noundef nonnull align 8 dereferenceable(36) %13)
  %cmp13 = icmp ne ptr %12, %call12
  br i1 %cmp13, label %if.then14, label %if.end15

if.then14:                                        ; preds = %if.end9
  %14 = load ptr, ptr %err_out.addr, align 8
  store ptr @.str.14, ptr %14, align 8
  store i32 0, ptr %retval, align 4
  br label %return

if.end15:                                         ; preds = %if.end9
  %15 = load i32, ptr %intval, align 4
  store i32 %15, ptr %retval, align 4
  br label %return

return:                                           ; preds = %if.end15, %if.then14, %if.end6, %if.then5, %if.then
  %16 = load i32, ptr %retval, align 4
  ret i32 %16
}