; Function Attrs: mustprogress uwtable
define hidden noundef i32 @_ZN6Assimp3FBX15ParseTokenAsIntERKNS0_5TokenERPKc(ptr nocapture noundef nonnull readonly align 8 dereferenceable(36) %t, ptr nocapture noundef nonnull writeonly align 8 dereferenceable(8) %err_out) local_unnamed_addr #3 {
entry:
  %in.addr.i = alloca ptr, align 8
  store ptr null, ptr %err_out, align 8
  %type.i = getelementptr inbounds i8, ptr %t, i64 16
  %0 = load i32, ptr %type.i, align 8
  %cmp.not = icmp eq i32 %0, 2
  br i1 %cmp.not, label %if.end, label %if.then

if.then:                                          ; preds = %entry
  store ptr @.str.9, ptr %err_out, align 8
  br label %return

if.end:                                           ; preds = %entry
  %column.i = getelementptr inbounds i8, ptr %t, i64 32
  %1 = load i32, ptr %column.i, align 8
  %cmp.i = icmp eq i32 %1, -1
  %2 = load ptr, ptr %t, align 8
  br i1 %cmp.i, label %if.then2, label %if.end9

if.then2:                                         ; preds = %if.end
  %3 = load i8, ptr %2, align 1
  %cmp4.not = icmp eq i8 %3, 73
  br i1 %cmp4.not, label %if.end6, label %if.then5

if.then5:                                         ; preds = %if.then2
  store ptr @.str.16, ptr %err_out, align 8
  br label %return

if.end6:                                          ; preds = %if.then2
  %add.ptr = getelementptr inbounds i8, ptr %2, i64 1
  %add.ptr.val = load i32, ptr %add.ptr, align 1
  br label %return

if.end9:                                          ; preds = %if.end
  call void @llvm.lifetime.start.p0(i64 8, ptr nonnull %in.addr.i)
  store ptr %2, ptr %in.addr.i, align 8
  %4 = load i8, ptr %2, align 1
  %cmp.i10 = icmp eq i8 %4, 45
  switch i8 %4, label %if.end.i [
    i8 45, label %if.then.i
    i8 43, label %if.then.i
  ]

if.then.i:                                        ; preds = %if.end9, %if.end9
  %incdec.ptr.i = getelementptr inbounds i8, ptr %2, i64 1
  store ptr %incdec.ptr.i, ptr %in.addr.i, align 8
  %.pre.i = load i8, ptr %incdec.ptr.i, align 1
  br label %if.end.i

if.end.i:                                         ; preds = %if.then.i, %if.end9
  %5 = phi i8 [ %4, %if.end9 ], [ %.pre.i, %if.then.i ]
  %6 = phi ptr [ %2, %if.end9 ], [ %incdec.ptr.i, %if.then.i ]
  %7 = add i8 %5, -58
  %or.cond7.i.i = icmp ult i8 %7, -10
  br i1 %or.cond7.i.i, label %for.end.i.i.thread, label %if.end.i.i

if.end.i.i:                                       ; preds = %if.end.i, %if.end.i.i
  %8 = phi i8 [ %9, %if.end.i.i ], [ %5, %if.end.i ]
  %value.09.i.i = phi i32 [ %add.i.i, %if.end.i.i ], [ 0, %if.end.i ]
  %in.addr.08.i.i = phi ptr [ %incdec.ptr.i.i, %if.end.i.i ], [ %6, %if.end.i ]
  %mul.i.i = mul i32 %value.09.i.i, 10
  %narrow.i.i = add nsw i8 %8, -48
  %sub.i.i = zext nneg i8 %narrow.i.i to i32
  %add.i.i = add i32 %mul.i.i, %sub.i.i
  %incdec.ptr.i.i = getelementptr inbounds i8, ptr %in.addr.08.i.i, i64 1
  %9 = load i8, ptr %incdec.ptr.i.i, align 1
  %10 = add i8 %9, -58
  %or.cond.i.i = icmp ult i8 %10, -10
  br i1 %or.cond.i.i, label %for.end.i.i, label %if.end.i.i, !llvm.loop !8

for.end.i.i:                                      ; preds = %if.end.i.i
  br i1 %cmp.i10, label %if.then4.i, label %_ZN6Assimp8strtol10EPKcPS1_.exit

for.end.i.i.thread:                               ; preds = %if.end.i
  br i1 %cmp.i10, label %if.then6.i, label %_ZN6Assimp8strtol10EPKcPS1_.exit

if.then4.i:                                       ; preds = %for.end.i.i
  %cmp5.not.i = icmp eq i32 %add.i.i, 2147483647
  br i1 %cmp5.not.i, label %if.else.i, label %if.then6.i

if.then6.i:                                       ; preds = %for.end.i.i.thread, %if.then4.i
  %in.addr.0.lcssa.i.i1521 = phi ptr [ %incdec.ptr.i.i, %if.then4.i ], [ %6, %for.end.i.i.thread ]
  %value.0.lcssa.i.i1620 = phi i32 [ %add.i.i, %if.then4.i ], [ 0, %for.end.i.i.thread ]
  %sub.i = sub nsw i32 0, %value.0.lcssa.i.i1620
  br label %_ZN6Assimp8strtol10EPKcPS1_.exit

if.else.i:                                        ; preds = %if.then4.i
  %call7.i = tail call noundef ptr @_ZN6Assimp13DefaultLogger3getEv()
  call void @_ZN6Assimp6Logger4warnIJRA24_KcRPS2_RA47_S2_EEEvDpOT_(ptr noundef nonnull align 8 dereferenceable(12) %call7.i, ptr noundef nonnull align 1 dereferenceable(24) @.str.44, ptr noundef nonnull align 8 dereferenceable(8) %in.addr.i, ptr noundef nonnull align 1 dereferenceable(47) @.str.45)
  br label %_ZN6Assimp8strtol10EPKcPS1_.exit

_ZN6Assimp8strtol10EPKcPS1_.exit:                 ; preds = %for.end.i.i.thread, %for.end.i.i, %if.then6.i, %if.else.i
  %in.addr.0.lcssa.i.i14 = phi ptr [ %in.addr.0.lcssa.i.i1521, %if.then6.i ], [ %incdec.ptr.i.i, %if.else.i ], [ %incdec.ptr.i.i, %for.end.i.i ], [ %6, %for.end.i.i.thread ]
  %value.0.i = phi i32 [ %sub.i, %if.then6.i ], [ 2147483647, %if.else.i ], [ %add.i.i, %for.end.i.i ], [ 0, %for.end.i.i.thread ]
  call void @llvm.lifetime.end.p0(i64 8, ptr nonnull %in.addr.i)
  %send.i11 = getelementptr inbounds i8, ptr %t, i64 8
  %11 = load ptr, ptr %send.i11, align 8
  %cmp13.not = icmp eq ptr %in.addr.0.lcssa.i.i14, %11
  br i1 %cmp13.not, label %return, label %if.then14

if.then14:                                        ; preds = %_ZN6Assimp8strtol10EPKcPS1_.exit
  store ptr @.str.14, ptr %err_out, align 8
  br label %return

return:                                           ; preds = %_ZN6Assimp8strtol10EPKcPS1_.exit, %if.then14, %if.end6, %if.then5, %if.then
  %retval.0 = phi i32 [ 0, %if.then ], [ 0, %if.then5 ], [ %add.ptr.val, %if.end6 ], [ 0, %if.then14 ], [ %value.0.i, %_ZN6Assimp8strtol10EPKcPS1_.exit ]
  ret i32 %retval.0
}